target datalayout = "e-m:e-p270:32:32-p271:32:32-p272:64:64-i64:64-i128:128-f80:128-n8:16:32:64-S128"
target triple = "x86_64-pc-linux-gnu"

%"class.rocksdb::EventLoggerStream" = type { ptr, ptr, i64, ptr }

; Function Attrs: mustprogress nounwind uwtable
define void @_ZN7rocksdb17EventLoggerStreamC2EPNS_9LogBufferEm(ptr noundef nonnull align 8 dereferenceable(32) %0, ptr noundef %1, i64 noundef %2) unnamed_addr #0 align 2 {
  %4 = alloca ptr, align 8
  %5 = alloca ptr, align 8
  %6 = alloca i64, align 8
  store ptr %0, ptr %4, align 8, !tbaa !4
  store ptr %1, ptr %5, align 8, !tbaa !19
  store i64 %2, ptr %6, align 8, !tbaa !20
  %7 = load ptr, ptr %4, align 8
  %8 = getelementptr inbounds nuw %"class.rocksdb::EventLoggerStream", ptr %7, i32 0, i32 0
  store ptr null, ptr %8, align 8, !tbaa !11
  %9 = getelementptr inbounds nuw %"class.rocksdb::EventLoggerStream", ptr %7, i32 0, i32 1
  %10 = load ptr, ptr %5, align 8, !tbaa !19
  store ptr %10, ptr %9, align 8, !tbaa !16
  %11 = getelementptr inbounds nuw %"class.rocksdb::EventLoggerStream", ptr %7, i32 0, i32 2
  %12 = load i64, ptr %6, align 8, !tbaa !20
  store i64 %12, ptr %11, align 8, !tbaa !17
  %13 = getelementptr inbounds nuw %"class.rocksdb::EventLoggerStream", ptr %7, i32 0, i32 3
  store ptr null, ptr %13, align 8, !tbaa !18
  ret void
}